; Function Attrs: mustprogress uwtable
define internal void @_ZN32pxrInternal_v0_24__pxrReserved__L23_Tf_RegistryFunction112EPNS_6TfTypeEPv(ptr nocapture readnone %0, ptr nocapture readnone %1) #0 personality ptr @__gxx_personality_v0 {
  %3 = alloca %"class.std::__cxx11::basic_string", align 8
  %4 = alloca %"class.std::allocator", align 1
  %5 = tail call noundef nonnull align 8 dereferenceable(8) ptr @_ZN32pxrInternal_v0_24__pxrReserved__6TfType11_DefineImplERKSt9type_infoPPS2_PPFPvS6_bEmmbb(ptr noundef nonnull align 8 dereferenceable(16) @_ZTIN32pxrInternal_v0_24__pxrReserved__7SdfPathE, ptr noundef null, ptr noundef null, i64 noundef 0, i64 noundef 8, i1 noundef zeroext false, i1 noundef zeroext false)
  %6 = tail call noundef nonnull align 8 dereferenceable(8) ptr @_ZN32pxrInternal_v0_24__pxrReserved__6TfType11_DefineImplERKSt9type_infoPPS2_PPFPvS6_bEmmbb(ptr noundef nonnull align 8 dereferenceable(16) @_ZTISt6vectorIN32pxrInternal_v0_24__pxrReserved__7SdfPathESaIS1_EE, ptr noundef null, ptr noundef null, i64 noundef 0, i64 noundef 24, i1 noundef zeroext false, i1 noundef zeroext false)
  %7 = tail call noundef nonnull align 8 dereferenceable(8) ptr @_ZN32pxrInternal_v0_24__pxrReserved__6TfType7GetRootEv()
  %.sroa.0.0.copyload = load ptr, ptr %7, align 8
  call void @_ZNSaIcEC1Ev(ptr noundef nonnull align 1 dereferenceable(1) %4) #20
  %8 = invoke noundef ptr @_ZNSt7__cxx1112basic_stringIcSt11char_traitsIcESaIcEE13_M_local_dataEv(ptr noundef nonnull align 8 dereferenceable(32) %3)
          to label %.noexc unwind label %11

.noexc:                                           ; preds = %2
  invoke void @_ZNSt7__cxx1112basic_stringIcSt11char_traitsIcESaIcEE12_Alloc_hiderC1EPcRKS3_(ptr noundef nonnull align 8 dereferenceable(8) %3, ptr noundef %8, ptr noundef nonnull align 1 dereferenceable(1) %4)
          to label %.noexc3 unwind label %11

.noexc3:                                          ; preds = %.noexc
  invoke void @_ZNSt7__cxx1112basic_stringIcSt11char_traitsIcESaIcEE12_M_constructIPKcEEvT_S8_St20forward_iterator_tag(ptr noundef nonnull align 8 dereferenceable(32) %3, ptr noundef nonnull @.str.35, ptr noundef nonnull getelementptr inbounds (i8, ptr @.str.35, i64 15))
          to label %_ZNSt7__cxx1112basic_stringIcSt11char_traitsIcESaIcEEC2IS3_EEPKcRKS3_.exit unwind label %9

9:                                                ; preds = %.noexc3
  %10 = landingpad { ptr, i32 }
          cleanup
  call void @_ZNSaIcED2Ev(ptr noundef nonnull align 1 dereferenceable(1) %3) #20
  br label %.body

_ZNSt7__cxx1112basic_stringIcSt11char_traitsIcESaIcEEC2IS3_EEPKcRKS3_.exit: ; preds = %.noexc3
  invoke void @_ZNK32pxrInternal_v0_24__pxrReserved__6TfType8AddAliasES0_RKNSt7__cxx1112basic_stringIcSt11char_traitsIcESaIcEEE(ptr noundef nonnull align 8 dereferenceable(8) %6, ptr %.sroa.0.0.copyload, ptr noundef nonnull align 8 dereferenceable(32) %3)
          to label %_ZNK32pxrInternal_v0_24__pxrReserved__6TfType5AliasES0_RKNSt7__cxx1112basic_stringIcSt11char_traitsIcESaIcEEE.exit unwind label %13

_ZNK32pxrInternal_v0_24__pxrReserved__6TfType5AliasES0_RKNSt7__cxx1112basic_stringIcSt11char_traitsIcESaIcEEE.exit: ; preds = %_ZNSt7__cxx1112basic_stringIcSt11char_traitsIcESaIcEEC2IS3_EEPKcRKS3_.exit
  call void @_ZNSt7__cxx1112basic_stringIcSt11char_traitsIcESaIcEED1Ev(ptr noundef nonnull align 8 dereferenceable(32) %3) #20
  call void @_ZNSaIcED1Ev(ptr noundef nonnull align 1 dereferenceable(1) %4) #20
  ret void

11:                                               ; preds = %.noexc, %2
  %12 = landingpad { ptr, i32 }
          cleanup
  br label %.body

13:                                               ; preds = %_ZNSt7__cxx1112basic_stringIcSt11char_traitsIcESaIcEEC2IS3_EEPKcRKS3_.exit
  %14 = landingpad { ptr, i32 }
          cleanup
  call void @_ZNSt7__cxx1112basic_stringIcSt11char_traitsIcESaIcEED1Ev(ptr noundef nonnull align 8 dereferenceable(32) %3) #20
  br label %.body

.body:                                            ; preds = %11, %9, %13
  %.pn = phi { ptr, i32 } [ %14, %13 ], [ %12, %11 ], [ %10, %9 ]
  call void @_ZNSaIcED1Ev(ptr noundef nonnull align 1 dereferenceable(1) %4) #20
  resume { ptr, i32 } %.pn
}